target datalayout = "e-m:e-p270:32:32-p271:32:32-p272:64:64-i64:64-i128:128-f80:128-n8:16:32:64-S128"
target triple = "x86_64-pc-linux-gnu"

%"class.gmx::AwhParams" = type <{ %"class.std::vector.15", i64, i32, i32, i32, i32, i8, [7 x i8] }>
%"class.std::vector.15" = type { %"struct.std::_Vector_base.16" }
%"struct.std::_Vector_base.16" = type { %"struct.std::_Vector_base<gmx::AwhBiasParams, std::allocator<gmx::AwhBiasParams>>::_Vector_impl" }
%"struct.std::_Vector_base<gmx::AwhBiasParams, std::allocator<gmx::AwhBiasParams>>::_Vector_impl" = type { %"struct.std::_Vector_base<gmx::AwhBiasParams, std::allocator<gmx::AwhBiasParams>>::_Vector_impl_data" }
%"struct.std::_Vector_base<gmx::AwhBiasParams, std::allocator<gmx::AwhBiasParams>>::_Vector_impl_data" = type { ptr, ptr, ptr }
%"class.gmx::AwhBiasParams" = type <{ %"class.std::vector.20", i32, [4 x i8], double, double, i32, [4 x i8], double, i8, i8, [6 x i8], double, double, i32, i8, [3 x i8] }>
%"class.std::vector.20" = type { %"struct.std::_Vector_base.21" }
%"struct.std::_Vector_base.21" = type { %"struct.std::_Vector_base<gmx::AwhDimParams, std::allocator<gmx::AwhDimParams>>::_Vector_impl" }
%"struct.std::_Vector_base<gmx::AwhDimParams, std::allocator<gmx::AwhDimParams>>::_Vector_impl" = type { %"struct.std::_Vector_base<gmx::AwhDimParams, std::allocator<gmx::AwhDimParams>>::_Vector_impl_data" }
%"struct.std::_Vector_base<gmx::AwhDimParams, std::allocator<gmx::AwhDimParams>>::_Vector_impl_data" = type { ptr, ptr, ptr }

; Function Attrs: mustprogress nounwind uwtable
define linkonce_odr noundef nonnull align 8 dereferenceable(93) ptr @_ZNKSt6vectorIN3gmx13AwhBiasParamsESaIS1_EEixEm(ptr noundef nonnull align 8 dereferenceable(24) %0, i64 noundef %1) #1 comdat align 2 {
  %3 = alloca ptr, align 8
  %4 = alloca i64, align 8
  store ptr %0, ptr %3, align 8, !tbaa !147
  store i64 %1, ptr %4, align 8, !tbaa !42
  %5 = load ptr, ptr %3, align 8
  %6 = getelementptr inbounds nuw %"struct.std::_Vector_base.16", ptr %5, i32 0, i32 0
  %7 = getelementptr inbounds nuw %"struct.std::_Vector_base<gmx::AwhBiasParams, std::allocator<gmx::AwhBiasParams>>::_Vector_impl_data", ptr %6, i32 0, i32 0
  %8 = load ptr, ptr %7, align 8, !tbaa !151
  %9 = load i64, ptr %4, align 8, !tbaa !42
  %10 = getelementptr inbounds nuw %"class.gmx::AwhBiasParams", ptr %8, i64 %9
  ret ptr %10
}

; Function Attrs: mustprogress nounwind uwtable
define linkonce_odr noundef i64 @_ZNKSt6vectorIN3gmx13AwhBiasParamsESaIS1_EE4sizeEv(ptr noundef nonnull align 8 dereferenceable(24) %0) #1 comdat align 2 {
  %2 = alloca ptr, align 8
  store ptr %0, ptr %2, align 8, !tbaa !147
  %3 = load ptr, ptr %2, align 8
  %4 = getelementptr inbounds nuw %"struct.std::_Vector_base.16", ptr %3, i32 0, i32 0
  %5 = getelementptr inbounds nuw %"struct.std::_Vector_base<gmx::AwhBiasParams, std::allocator<gmx::AwhBiasParams>>::_Vector_impl_data", ptr %4, i32 0, i32 1
  %6 = load ptr, ptr %5, align 8, !tbaa !149
  %7 = getelementptr inbounds nuw %"struct.std::_Vector_base.16", ptr %3, i32 0, i32 0
  %8 = getelementptr inbounds nuw %"struct.std::_Vector_base<gmx::AwhBiasParams, std::allocator<gmx::AwhBiasParams>>::_Vector_impl_data", ptr %7, i32 0, i32 0
  %9 = load ptr, ptr %8, align 8, !tbaa !151
  %10 = ptrtoint ptr %6 to i64
  %11 = ptrtoint ptr %9 to i64
  %12 = sub i64 %10, %11
  %13 = sdiv exact i64 %12, 96
  ret i64 %13
}

; Function Attrs: mustprogress nounwind uwtable
define linkonce_odr noundef i32 @_ZNK3gmx13AwhBiasParams10shareGroupEv(ptr noundef nonnull align 8 dereferenceable(93) %0) #1 comdat align 2 {
  %2 = alloca ptr, align 8
  store ptr %0, ptr %2, align 8, !tbaa !57
  %3 = load ptr, ptr %2, align 8
  %4 = getelementptr inbounds nuw %"class.gmx::AwhBiasParams", ptr %3, i32 0, i32 13
  %5 = load i32, ptr %4, align 8, !tbaa !59
  ret i32 %5
}

; Function Attrs: mustprogress nounwind uwtable
define linkonce_odr noundef nonnull align 8 dereferenceable(93) ptr @_ZNK3gmx9AwhParams13awhBiasParamsEm(ptr noundef nonnull align 8 dereferenceable(49) %0, i64 noundef %1) #1 comdat align 2 {
  %3 = alloca ptr, align 8
  %4 = alloca i64, align 8
  store ptr %0, ptr %3, align 8, !tbaa !9
  store i64 %1, ptr %4, align 8, !tbaa !42
  %5 = load ptr, ptr %3, align 8
  %6 = getelementptr inbounds nuw %"class.gmx::AwhParams", ptr %5, i32 0, i32 0
  %7 = load i64, ptr %4, align 8, !tbaa !42
  %8 = call noundef nonnull align 8 dereferenceable(93) ptr @_ZNKSt6vectorIN3gmx13AwhBiasParamsESaIS1_EEixEm(ptr noundef nonnull align 8 dereferenceable(24) %6, i64 noundef %7) #18
  ret ptr %8
}

; Function Attrs: mustprogress nounwind uwtable
define linkonce_odr noundef i32 @_ZNK3gmx9AwhParams7numBiasEv(ptr noundef nonnull align 8 dereferenceable(49) %0) #1 comdat align 2 {
  %2 = alloca ptr, align 8
  store ptr %0, ptr %2, align 8, !tbaa !9
  %3 = load ptr, ptr %2, align 8
  %4 = getelementptr inbounds nuw %"class.gmx::AwhParams", ptr %3, i32 0, i32 0
  %5 = call noundef i64 @_ZNKSt6vectorIN3gmx13AwhBiasParamsESaIS1_EE4sizeEv(ptr noundef nonnull align 8 dereferenceable(24) %4) #18
  %6 = trunc i64 %5 to i32
  ret i32 %6
}

; Function Attrs: mustprogress nounwind uwtable
define noundef zeroext i1 @_ZN3gmx31haveBiasSharingWithinSimulationERKNS_9AwhParamsE(ptr noundef nonnull align 8 dereferenceable(49) %0) #1 {
  %2 = alloca ptr, align 8
  %3 = alloca i8, align 1
  %4 = alloca i32, align 4
  %5 = alloca i32, align 4
  %6 = alloca i32, align 4
  %7 = alloca i32, align 4
  store ptr %0, ptr %2, align 8, !tbaa !9
  call void @llvm.lifetime.start.p0(i64 1, ptr %3) #18
  store i8 0, ptr %3, align 1, !tbaa !134
  call void @llvm.lifetime.start.p0(i64 4, ptr %4) #18
  store i32 0, ptr %4, align 4, !tbaa !35
  br label %8

8:                                                ; preds = %46, %1
  %9 = load i32, ptr %4, align 4, !tbaa !35
  %10 = load ptr, ptr %2, align 8, !tbaa !9
  %11 = call noundef i32 @_ZNK3gmx9AwhParams7numBiasEv(ptr noundef nonnull align 8 dereferenceable(49) %10)
  %12 = icmp slt i32 %9, %11
  br i1 %12, label %14, label %13

13:                                               ; preds = %8
  store i32 2, ptr %5, align 4
  call void @llvm.lifetime.end.p0(i64 4, ptr %4) #18
  br label %49

14:                                               ; preds = %8
  call void @llvm.lifetime.start.p0(i64 4, ptr %6) #18
  %15 = load ptr, ptr %2, align 8, !tbaa !9
  %16 = load i32, ptr %4, align 4, !tbaa !35
  %17 = sext i32 %16 to i64
  %18 = call noundef nonnull align 8 dereferenceable(93) ptr @_ZNK3gmx9AwhParams13awhBiasParamsEm(ptr noundef nonnull align 8 dereferenceable(49) %15, i64 noundef %17)
  %19 = call noundef i32 @_ZNK3gmx13AwhBiasParams10shareGroupEv(ptr noundef nonnull align 8 dereferenceable(93) %18)
  store i32 %19, ptr %6, align 4, !tbaa !35
  %20 = load i32, ptr %6, align 4, !tbaa !35
  %21 = icmp sgt i32 %20, 0
  br i1 %21, label %22, label %45

22:                                               ; preds = %14
  call void @llvm.lifetime.start.p0(i64 4, ptr %7) #18
  %23 = load i32, ptr %4, align 4, !tbaa !35
  %24 = add nsw i32 %23, 1
  store i32 %24, ptr %7, align 4, !tbaa !35
  br label %25

25:                                               ; preds = %41, %22
  %26 = load i32, ptr %7, align 4, !tbaa !35
  %27 = load ptr, ptr %2, align 8, !tbaa !9
  %28 = call noundef i32 @_ZNK3gmx9AwhParams7numBiasEv(ptr noundef nonnull align 8 dereferenceable(49) %27)
  %29 = icmp slt i32 %26, %28
  br i1 %29, label %31, label %30

30:                                               ; preds = %25
  store i32 5, ptr %5, align 4
  call void @llvm.lifetime.end.p0(i64 4, ptr %7) #18
  br label %44

31:                                               ; preds = %25
  %32 = load ptr, ptr %2, align 8, !tbaa !9
  %33 = load i32, ptr %7, align 4, !tbaa !35
  %34 = sext i32 %33 to i64
  %35 = call noundef nonnull align 8 dereferenceable(93) ptr @_ZNK3gmx9AwhParams13awhBiasParamsEm(ptr noundef nonnull align 8 dereferenceable(49) %32, i64 noundef %34)
  %36 = call noundef i32 @_ZNK3gmx13AwhBiasParams10shareGroupEv(ptr noundef nonnull align 8 dereferenceable(93) %35)
  %37 = load i32, ptr %6, align 4, !tbaa !35
  %38 = icmp eq i32 %36, %37
  br i1 %38, label %39, label %40

39:                                               ; preds = %31
  store i8 1, ptr %3, align 1, !tbaa !134
  br label %40

40:                                               ; preds = %39, %31
  br label %41

41:                                               ; preds = %40
  %42 = load i32, ptr %7, align 4, !tbaa !35
  %43 = add nsw i32 %42, 1
  store i32 %43, ptr %7, align 4, !tbaa !35
  br label %25, !llvm.loop !362

44:                                               ; preds = %30
  br label %45

45:                                               ; preds = %44, %14
  call void @llvm.lifetime.end.p0(i64 4, ptr %6) #18
  br label %46

46:                                               ; preds = %45
  %47 = load i32, ptr %4, align 4, !tbaa !35
  %48 = add nsw i32 %47, 1
  store i32 %48, ptr %4, align 4, !tbaa !35
  br label %8, !llvm.loop !363

49:                                               ; preds = %13
  %50 = load i8, ptr %3, align 1, !tbaa !134, !range !295, !noundef !296
  %51 = trunc i8 %50 to i1
  store i32 1, ptr %5, align 4
  call void @llvm.lifetime.end.p0(i64 1, ptr %3) #18
  ret i1 %51
}