; Function Attrs: mustprogress nofree norecurse nosync nounwind willreturn memory(read, inaccessiblemem: none) uwtable
define noundef zeroext i1 @_ZN3gmx31haveBiasSharingWithinSimulationERKNS_9AwhParamsE(ptr noundef nonnull readonly align 8 captures(none) dereferenceable(49) %0) local_unnamed_addr #17 {
  %2 = getelementptr inbounds nuw i8, ptr %0, i64 8
  %3 = load ptr, ptr %2, align 8, !tbaa !9
  %4 = load ptr, ptr %0, align 8, !tbaa !12
  %5 = ptrtoint ptr %3 to i64
  %6 = ptrtoint ptr %4 to i64
  %7 = sub i64 %5, %6
  %8 = sdiv exact i64 %7, 96
  %9 = trunc i64 %8 to i32
  %10 = icmp sgt i32 %9, 0
  br i1 %10, label %.lr.ph21.preheader, label %._crit_edge

.lr.ph21.preheader:                               ; preds = %1
  %11 = and i64 %8, 2147483647
  %wide.trip.count27 = and i64 %8, 2147483647
  br label %.lr.ph21

._crit_edge:                                      ; preds = %.loopexit, %1
  %.013.lcssa = phi i1 [ false, %1 ], [ %.1, %.loopexit ]
  ret i1 %.013.lcssa

.lr.ph21:                                         ; preds = %.lr.ph21.preheader, %.loopexit
  %indvars.iv25 = phi i64 [ 0, %.lr.ph21.preheader ], [ %indvars.iv.next26, %.loopexit ]
  %indvars.iv = phi i64 [ 1, %.lr.ph21.preheader ], [ %indvars.iv.next, %.loopexit ]
  %.01320 = phi i1 [ false, %.lr.ph21.preheader ], [ %.1, %.loopexit ]
  %12 = getelementptr inbounds nuw %"class.gmx::AwhBiasParams", ptr %4, i64 %indvars.iv25, i32 13
  %13 = load i32, ptr %12, align 8, !tbaa !54
  %14 = icmp sgt i32 %13, 0
  %indvars.iv.next26 = add nuw nsw i64 %indvars.iv25, 1
  %15 = icmp samesign ult i64 %indvars.iv.next26, %11
  %or.cond = select i1 %14, i1 %15, i1 false
  br i1 %or.cond, label %.lr.ph, label %.loopexit

.lr.ph:                                           ; preds = %.lr.ph21, %.lr.ph
  %indvars.iv23 = phi i64 [ %indvars.iv.next24, %.lr.ph ], [ %indvars.iv, %.lr.ph21 ]
  %.217 = phi i1 [ %spec.select, %.lr.ph ], [ %.01320, %.lr.ph21 ]
  %16 = getelementptr inbounds nuw %"class.gmx::AwhBiasParams", ptr %4, i64 %indvars.iv23, i32 13
  %17 = load i32, ptr %16, align 8, !tbaa !54
  %18 = icmp eq i32 %17, %13
  %spec.select = select i1 %18, i1 true, i1 %.217
  %indvars.iv.next24 = add nuw nsw i64 %indvars.iv23, 1
  %exitcond.not = icmp eq i64 %indvars.iv.next24, %wide.trip.count27
  br i1 %exitcond.not, label %.loopexit, label %.lr.ph, !llvm.loop !134

.loopexit:                                        ; preds = %.lr.ph, %.lr.ph21
  %.1 = phi i1 [ %.01320, %.lr.ph21 ], [ %spec.select, %.lr.ph ]
  %indvars.iv.next = add nuw nsw i64 %indvars.iv, 1
  %exitcond28.not = icmp eq i64 %indvars.iv.next26, %wide.trip.count27
  br i1 %exitcond28.not, label %._crit_edge, label %.lr.ph21, !llvm.loop !135
}